; Function Attrs: mustprogress uwtable
define void @_ZN4pkpy8Compiler7consumeEh(ptr noundef nonnull align 8 dereferenceable(200) %0, i8 noundef zeroext %1) local_unnamed_addr #5 align 2 personality ptr @__gxx_personality_v0 {
  %3 = alloca %"struct.pkpy::Str", align 8
  %4 = getelementptr inbounds nuw i8, ptr %0, i64 176
  %5 = getelementptr inbounds nuw i8, ptr %0, i64 172
  %6 = load i32, ptr %5, align 4
  %7 = sext i32 %6 to i64
  %8 = getelementptr inbounds nuw i8, ptr %0, i64 184
  %9 = load ptr, ptr %8, align 8
  %10 = load ptr, ptr %4, align 8
  %11 = ptrtoint ptr %9 to i64
  %12 = ptrtoint ptr %10 to i64
  %13 = sub i64 %11, %12
  %14 = sdiv exact i64 %13, 72
  %.not.i.i.i.i = icmp ugt i64 %14, %7
  br i1 %.not.i.i.i.i, label %_ZNK4pkpy8Compiler4currEv.exit.i, label %15

15:                                               ; preds = %2
  tail call void (ptr, ...) @_ZSt24__throw_out_of_range_fmtPKcz(ptr noundef nonnull @.str.106, i64 noundef %7, i64 noundef %14) #35
  unreachable

_ZNK4pkpy8Compiler4currEv.exit.i:                 ; preds = %2
  %16 = getelementptr inbounds %"struct.pkpy::Token", ptr %10, i64 %7
  %17 = load i8, ptr %16, align 8
  %.not.i = icmp eq i8 %17, %1
  br i1 %.not.i, label %_ZN4pkpy8Compiler5matchEh.exit.thread, label %_ZNK4pkpy8Compiler4currEv.exit

_ZN4pkpy8Compiler5matchEh.exit.thread:            ; preds = %_ZNK4pkpy8Compiler4currEv.exit.i
  %18 = add nsw i32 %6, 1
  store i32 %18, ptr %5, align 4
  br label %26

_ZNK4pkpy8Compiler4currEv.exit:                   ; preds = %_ZNK4pkpy8Compiler4currEv.exit.i
  %19 = zext i8 %1 to i64
  %20 = getelementptr inbounds nuw [95 x ptr], ptr @_ZN4pkpyL7kTokensE, i64 0, i64 %19
  %21 = zext i8 %17 to i64
  %22 = getelementptr inbounds nuw [95 x ptr], ptr @_ZN4pkpyL7kTokensE, i64 0, i64 %21
  call void @_ZN4pkpy2_SIJRA11_KcRKPS1_RA9_S1_S6_RA2_S1_EEENS_3StrEDpOT_(ptr dead_on_unwind nonnull writable sret(%"struct.pkpy::Str") align 8 %3, ptr noundef nonnull align 1 dereferenceable(11) @.str.56, ptr noundef nonnull align 8 dereferenceable(8) %20, ptr noundef nonnull align 1 dereferenceable(9) @.str.57, ptr noundef nonnull align 8 dereferenceable(8) %22, ptr noundef nonnull align 1 dereferenceable(2) @.str.58)
  invoke void @_ZN4pkpy8Compiler11SyntaxErrorENS_3StrE(ptr noundef nonnull align 8 dereferenceable(200) %0, ptr noundef nonnull %3)
          to label %23 unwind label %24

23:                                               ; preds = %_ZNK4pkpy8Compiler4currEv.exit
  call void @_ZN4pkpy3StrD1Ev(ptr noundef nonnull align 8 dereferenceable(32) %3) #36
  br label %26

24:                                               ; preds = %_ZNK4pkpy8Compiler4currEv.exit
  %25 = landingpad { ptr, i32 }
          cleanup
  call void @_ZN4pkpy3StrD1Ev(ptr noundef nonnull align 8 dereferenceable(32) %3) #36
  resume { ptr, i32 } %25

26:                                               ; preds = %_ZN4pkpy8Compiler5matchEh.exit.thread, %23
  ret void
}